; ModuleID = 'source-C-CXX/30/1961.c'
source_filename = "source-C-CXX/30/1961.c"
target datalayout = "e-m:e-p270:32:32-p271:32:32-p272:64:64-i64:64-f80:128-n8:16:32:64-S128"
target triple = "x86_64-pc-linux-gnu"

%struct.student = type { [10 x i8], [20 x i8], i8, i32, [6 x i8], [20 x i8], %struct.student* }

@n = dso_local local_unnamed_addr global i32 0, align 4
@.str = private unnamed_addr constant [3 x i8] c"%s\00", align 1
@.str.1 = private unnamed_addr constant [15 x i8] c"%s %c %d %s %s\00", align 1
@.str.2 = private unnamed_addr constant [19 x i8] c"%s %s %c %d %s %s\0A\00", align 1

; Function Attrs: nofree nounwind sspstrong uwtable
define dso_local %struct.student* @create() local_unnamed_addr #0 {
  store i32 0, i32* @n, align 4, !tbaa !5
  %1 = tail call noalias align 16 dereferenceable_or_null(100) i8* @malloc(i64 100) #3
  %2 = bitcast i8* %1 to %struct.student*
  %3 = getelementptr inbounds %struct.student, %struct.student* %2, i64 0, i32 0, i64 0
  %4 = tail call i32 (i8*, ...) @__isoc99_scanf(i8* getelementptr inbounds ([3 x i8], [3 x i8]* @.str, i64 0, i64 0), i8* %3)
  %5 = load i8, i8* %3, align 16, !tbaa !9
  %6 = icmp eq i8 %5, 101
  br i1 %6, label %28, label %7

7:                                                ; preds = %0, %7
  %8 = phi %struct.student* [ %23, %7 ], [ %2, %0 ]
  %9 = phi %struct.student* [ %8, %7 ], [ %2, %0 ]
  %10 = load i32, i32* @n, align 4, !tbaa !5
  %11 = add nsw i32 %10, 1
  store i32 %11, i32* @n, align 4, !tbaa !5
  %12 = icmp eq i32 %10, 0
  %13 = select i1 %12, %struct.student* %9, %struct.student* %8
  %14 = select i1 %12, %struct.student* null, %struct.student* %9
  %15 = getelementptr inbounds %struct.student, %struct.student* %13, i64 0, i32 6
  store %struct.student* %14, %struct.student** %15, align 8, !tbaa !10
  %16 = getelementptr inbounds %struct.student, %struct.student* %8, i64 0, i32 1, i64 0
  %17 = getelementptr inbounds %struct.student, %struct.student* %8, i64 0, i32 2
  %18 = getelementptr inbounds %struct.student, %struct.student* %8, i64 0, i32 3
  %19 = getelementptr inbounds %struct.student, %struct.student* %8, i64 0, i32 4, i64 0
  %20 = getelementptr inbounds %struct.student, %struct.student* %8, i64 0, i32 5, i64 0
  %21 = tail call i32 (i8*, ...) @__isoc99_scanf(i8* getelementptr inbounds ([15 x i8], [15 x i8]* @.str.1, i64 0, i64 0), i8* nonnull %16, i8* nonnull %17, i32* nonnull %18, i8* nonnull %19, i8* nonnull %20)
  %22 = tail call noalias align 16 dereferenceable_or_null(100) i8* @malloc(i64 100) #3
  %23 = bitcast i8* %22 to %struct.student*
  %24 = getelementptr inbounds %struct.student, %struct.student* %23, i64 0, i32 0, i64 0
  %25 = tail call i32 (i8*, ...) @__isoc99_scanf(i8* getelementptr inbounds ([3 x i8], [3 x i8]* @.str, i64 0, i64 0), i8* %24)
  %26 = load i8, i8* %24, align 16, !tbaa !9
  %27 = icmp eq i8 %26, 101
  br i1 %27, label %28, label %7, !llvm.loop !13

28:                                               ; preds = %7, %0
  %29 = phi %struct.student* [ %2, %0 ], [ %8, %7 ]
  ret %struct.student* %29
}

; Function Attrs: inaccessiblememonly mustprogress nofree nounwind willreturn
declare noalias noundef align 16 i8* @malloc(i64 noundef) local_unnamed_addr #1

; Function Attrs: nofree nounwind
declare noundef i32 @__isoc99_scanf(i8* nocapture noundef readonly, ...) local_unnamed_addr #2

; Function Attrs: nofree nounwind sspstrong uwtable
define dso_local void @print(%struct.student* %0) local_unnamed_addr #0 {
  %2 = icmp eq %struct.student* %0, null
  br i1 %2, label %18, label %3

3:                                                ; preds = %1, %3
  %4 = phi %struct.student* [ %16, %3 ], [ %0, %1 ]
  %5 = getelementptr inbounds %struct.student, %struct.student* %4, i64 0, i32 0, i64 0
  %6 = getelementptr inbounds %struct.student, %struct.student* %4, i64 0, i32 1, i64 0
  %7 = getelementptr inbounds %struct.student, %struct.student* %4, i64 0, i32 2
  %8 = load i8, i8* %7, align 2, !tbaa !15
  %9 = sext i8 %8 to i32
  %10 = getelementptr inbounds %struct.student, %struct.student* %4, i64 0, i32 3
  %11 = load i32, i32* %10, align 8, !tbaa !16
  %12 = getelementptr inbounds %struct.student, %struct.student* %4, i64 0, i32 4, i64 0
  %13 = getelementptr inbounds %struct.student, %struct.student* %4, i64 0, i32 5, i64 0
  %14 = tail call i32 (i8*, ...) @printf(i8* nonnull dereferenceable(1) getelementptr inbounds ([19 x i8], [19 x i8]* @.str.2, i64 0, i64 0), i8* nonnull %5, i8* nonnull %6, i32 %9, i32 %11, i8* nonnull %12, i8* nonnull %13)
  %15 = getelementptr inbounds %struct.student, %struct.student* %4, i64 0, i32 6
  %16 = load %struct.student*, %struct.student** %15, align 8, !tbaa !10
  %17 = icmp eq %struct.student* %16, null
  br i1 %17, label %18, label %3, !llvm.loop !17

18:                                               ; preds = %3, %1
  ret void
}

; Function Attrs: nofree nounwind
declare noundef i32 @printf(i8* nocapture noundef readonly, ...) local_unnamed_addr #2

; Function Attrs: nofree nounwind sspstrong uwtable
define dso_local void @main() local_unnamed_addr #0 {
  %1 = tail call %struct.student* @create()
  %2 = icmp eq %struct.student* %1, null
  br i1 %2, label %18, label %3

3:                                                ; preds = %0, %3
  %4 = phi %struct.student* [ %16, %3 ], [ %1, %0 ]
  %5 = getelementptr inbounds %struct.student, %struct.student* %4, i64 0, i32 0, i64 0
  %6 = getelementptr inbounds %struct.student, %struct.student* %4, i64 0, i32 1, i64 0
  %7 = getelementptr inbounds %struct.student, %struct.student* %4, i64 0, i32 2
  %8 = load i8, i8* %7, align 2, !tbaa !15
  %9 = sext i8 %8 to i32
  %10 = getelementptr inbounds %struct.student, %struct.student* %4, i64 0, i32 3
  %11 = load i32, i32* %10, align 8, !tbaa !16
  %12 = getelementptr inbounds %struct.student, %struct.student* %4, i64 0, i32 4, i64 0
  %13 = getelementptr inbounds %struct.student, %struct.student* %4, i64 0, i32 5, i64 0
  %14 = tail call i32 (i8*, ...) @printf(i8* nonnull dereferenceable(1) getelementptr inbounds ([19 x i8], [19 x i8]* @.str.2, i64 0, i64 0), i8* nonnull %5, i8* nonnull %6, i32 %9, i32 %11, i8* nonnull %12, i8* nonnull %13) #3
  %15 = getelementptr inbounds %struct.student, %struct.student* %4, i64 0, i32 6
  %16 = load %struct.student*, %struct.student** %15, align 8, !tbaa !10
  %17 = icmp eq %struct.student* %16, null
  br i1 %17, label %18, label %3, !llvm.loop !17

18:                                               ; preds = %3, %0
  ret void
}


!llvm.module.flags = !{!0, !1, !2, !3}
!llvm.ident = !{!4}

!0 = !{i32 1, !"wchar_size", i32 4}
!1 = !{i32 7, !"PIC Level", i32 2}
!2 = !{i32 7, !"PIE Level", i32 2}
!3 = !{i32 7, !"uwtable", i32 1}
!4 = !{!"clang version 13.0.0"}
!5 = !{!6, !6, i64 0}
!6 = !{!"int", !7, i64 0}
!7 = !{!"omnipotent char", !8, i64 0}
!8 = !{!"Simple C/C++ TBAA"}
!9 = !{!7, !7, i64 0}
!10 = !{!11, !12, i64 64}
!11 = !{!"student", !7, i64 0, !7, i64 10, !7, i64 30, !6, i64 32, !7, i64 36, !7, i64 42, !12, i64 64}
!12 = !{!"any pointer", !7, i64 0}
!13 = distinct !{!13, !14}
!14 = !{!"llvm.loop.mustprogress"}
!15 = !{!11, !7, i64 30}
!16 = !{!11, !6, i64 32}
!17 = distinct !{!17, !14}
